; ModuleID = '8/640.c'
source_filename = "8/640.c"
target datalayout = "e-m:e-p270:32:32-p271:32:32-p272:64:64-i64:64-f80:128-n8:16:32:64-S128"
target triple = "x86_64-pc-linux-gnu"

@.str = private unnamed_addr constant [6 x i8] c"%d %d\00", align 1
@.str.1 = private unnamed_addr constant [3 x i8] c"%d\00", align 1
@.str.2 = private unnamed_addr constant [4 x i8] c"%d \00", align 1
@.str.3 = private unnamed_addr constant [4 x i8] c" %d\00", align 1

; Function Attrs: noinline nounwind uwtable
define dso_local i32 @main() #0 {
  %1 = alloca i32, align 4
  %2 = alloca [101 x i32], align 16
  %3 = alloca [101 x i32], align 16
  %4 = alloca i32, align 4
  %5 = alloca i32, align 4
  %6 = alloca i32, align 4
  %7 = alloca i32, align 4
  %8 = alloca i32, align 4
  %9 = alloca i32, align 4
  %10 = alloca i32, align 4
  %11 = alloca i32, align 4
  %12 = alloca i32, align 4
  %13 = alloca i32, align 4
  %14 = alloca i32, align 4
  %15 = alloca i32, align 4
  store i32 0, i32* %1, align 4
  %16 = call i32 (i8*, ...) @__isoc99_scanf(i8* getelementptr inbounds ([6 x i8], [6 x i8]* @.str, i64 0, i64 0), i32* %4, i32* %5)
  store i32 0, i32* %6, align 4
  br label %17

17:                                               ; preds = %26, %0
  %18 = load i32, i32* %6, align 4
  %19 = load i32, i32* %4, align 4
  %20 = icmp slt i32 %18, %19
  br i1 %20, label %21, label %29

21:                                               ; preds = %17
  %22 = load i32, i32* %6, align 4
  %23 = sext i32 %22 to i64
  %24 = getelementptr inbounds [101 x i32], [101 x i32]* %2, i64 0, i64 %23
  %25 = call i32 (i8*, ...) @__isoc99_scanf(i8* getelementptr inbounds ([3 x i8], [3 x i8]* @.str.1, i64 0, i64 0), i32* %24)
  br label %26

26:                                               ; preds = %21
  %27 = load i32, i32* %6, align 4
  %28 = add nsw i32 %27, 1
  store i32 %28, i32* %6, align 4
  br label %17

29:                                               ; preds = %17
  store i32 0, i32* %7, align 4
  br label %30

30:                                               ; preds = %39, %29
  %31 = load i32, i32* %7, align 4
  %32 = load i32, i32* %5, align 4
  %33 = icmp slt i32 %31, %32
  br i1 %33, label %34, label %42

34:                                               ; preds = %30
  %35 = load i32, i32* %7, align 4
  %36 = sext i32 %35 to i64
  %37 = getelementptr inbounds [101 x i32], [101 x i32]* %3, i64 0, i64 %36
  %38 = call i32 (i8*, ...) @__isoc99_scanf(i8* getelementptr inbounds ([3 x i8], [3 x i8]* @.str.1, i64 0, i64 0), i32* %37)
  br label %39

39:                                               ; preds = %34
  %40 = load i32, i32* %7, align 4
  %41 = add nsw i32 %40, 1
  store i32 %41, i32* %7, align 4
  br label %30

42:                                               ; preds = %30
  store i32 0, i32* %8, align 4
  br label %43

43:                                               ; preds = %90, %42
  %44 = load i32, i32* %8, align 4
  %45 = load i32, i32* %4, align 4
  %46 = sub nsw i32 %45, 1
  %47 = icmp slt i32 %44, %46
  br i1 %47, label %48, label %93

48:                                               ; preds = %43
  store i32 0, i32* %9, align 4
  br label %49

49:                                               ; preds = %86, %48
  %50 = load i32, i32* %9, align 4
  %51 = load i32, i32* %4, align 4
  %52 = sub nsw i32 %51, 1
  %53 = load i32, i32* %8, align 4
  %54 = sub nsw i32 %52, %53
  %55 = icmp slt i32 %50, %54
  br i1 %55, label %56, label %89

56:                                               ; preds = %49
  %57 = load i32, i32* %9, align 4
  %58 = sext i32 %57 to i64
  %59 = getelementptr inbounds [101 x i32], [101 x i32]* %2, i64 0, i64 %58
  %60 = load i32, i32* %59, align 4
  %61 = load i32, i32* %9, align 4
  %62 = add nsw i32 %61, 1
  %63 = sext i32 %62 to i64
  %64 = getelementptr inbounds [101 x i32], [101 x i32]* %2, i64 0, i64 %63
  %65 = load i32, i32* %64, align 4
  %66 = icmp sgt i32 %60, %65
  br i1 %66, label %67, label %85

67:                                               ; preds = %56
  %68 = load i32, i32* %9, align 4
  %69 = sext i32 %68 to i64
  %70 = getelementptr inbounds [101 x i32], [101 x i32]* %2, i64 0, i64 %69
  %71 = load i32, i32* %70, align 4
  store i32 %71, i32* %14, align 4
  %72 = load i32, i32* %9, align 4
  %73 = add nsw i32 %72, 1
  %74 = sext i32 %73 to i64
  %75 = getelementptr inbounds [101 x i32], [101 x i32]* %2, i64 0, i64 %74
  %76 = load i32, i32* %75, align 4
  %77 = load i32, i32* %9, align 4
  %78 = sext i32 %77 to i64
  %79 = getelementptr inbounds [101 x i32], [101 x i32]* %2, i64 0, i64 %78
  store i32 %76, i32* %79, align 4
  %80 = load i32, i32* %14, align 4
  %81 = load i32, i32* %9, align 4
  %82 = add nsw i32 %81, 1
  %83 = sext i32 %82 to i64
  %84 = getelementptr inbounds [101 x i32], [101 x i32]* %2, i64 0, i64 %83
  store i32 %80, i32* %84, align 4
  br label %85

85:                                               ; preds = %67, %56
  br label %86

86:                                               ; preds = %85
  %87 = load i32, i32* %9, align 4
  %88 = add nsw i32 %87, 1
  store i32 %88, i32* %9, align 4
  br label %49

89:                                               ; preds = %49
  br label %90

90:                                               ; preds = %89
  %91 = load i32, i32* %8, align 4
  %92 = add nsw i32 %91, 1
  store i32 %92, i32* %8, align 4
  br label %43

93:                                               ; preds = %43
  store i32 0, i32* %10, align 4
  br label %94

94:                                               ; preds = %141, %93
  %95 = load i32, i32* %10, align 4
  %96 = load i32, i32* %5, align 4
  %97 = sub nsw i32 %96, 1
  %98 = icmp slt i32 %95, %97
  br i1 %98, label %99, label %144

99:                                               ; preds = %94
  store i32 0, i32* %11, align 4
  br label %100

100:                                              ; preds = %137, %99
  %101 = load i32, i32* %11, align 4
  %102 = load i32, i32* %5, align 4
  %103 = sub nsw i32 %102, 1
  %104 = load i32, i32* %10, align 4
  %105 = sub nsw i32 %103, %104
  %106 = icmp slt i32 %101, %105
  br i1 %106, label %107, label %140

107:                                              ; preds = %100
  %108 = load i32, i32* %11, align 4
  %109 = sext i32 %108 to i64
  %110 = getelementptr inbounds [101 x i32], [101 x i32]* %3, i64 0, i64 %109
  %111 = load i32, i32* %110, align 4
  %112 = load i32, i32* %11, align 4
  %113 = add nsw i32 %112, 1
  %114 = sext i32 %113 to i64
  %115 = getelementptr inbounds [101 x i32], [101 x i32]* %3, i64 0, i64 %114
  %116 = load i32, i32* %115, align 4
  %117 = icmp sgt i32 %111, %116
  br i1 %117, label %118, label %136

118:                                              ; preds = %107
  %119 = load i32, i32* %11, align 4
  %120 = sext i32 %119 to i64
  %121 = getelementptr inbounds [101 x i32], [101 x i32]* %3, i64 0, i64 %120
  %122 = load i32, i32* %121, align 4
  store i32 %122, i32* %15, align 4
  %123 = load i32, i32* %11, align 4
  %124 = add nsw i32 %123, 1
  %125 = sext i32 %124 to i64
  %126 = getelementptr inbounds [101 x i32], [101 x i32]* %3, i64 0, i64 %125
  %127 = load i32, i32* %126, align 4
  %128 = load i32, i32* %11, align 4
  %129 = sext i32 %128 to i64
  %130 = getelementptr inbounds [101 x i32], [101 x i32]* %3, i64 0, i64 %129
  store i32 %127, i32* %130, align 4
  %131 = load i32, i32* %15, align 4
  %132 = load i32, i32* %11, align 4
  %133 = add nsw i32 %132, 1
  %134 = sext i32 %133 to i64
  %135 = getelementptr inbounds [101 x i32], [101 x i32]* %3, i64 0, i64 %134
  store i32 %131, i32* %135, align 4
  br label %136

136:                                              ; preds = %118, %107
  br label %137

137:                                              ; preds = %136
  %138 = load i32, i32* %11, align 4
  %139 = add nsw i32 %138, 1
  store i32 %139, i32* %11, align 4
  br label %100

140:                                              ; preds = %100
  br label %141

141:                                              ; preds = %140
  %142 = load i32, i32* %10, align 4
  %143 = add nsw i32 %142, 1
  store i32 %143, i32* %10, align 4
  br label %94

144:                                              ; preds = %94
  store i32 0, i32* %12, align 4
  br label %145

145:                                              ; preds = %156, %144
  %146 = load i32, i32* %12, align 4
  %147 = load i32, i32* %4, align 4
  %148 = sub nsw i32 %147, 1
  %149 = icmp slt i32 %146, %148
  br i1 %149, label %150, label %159

150:                                              ; preds = %145
  %151 = load i32, i32* %12, align 4
  %152 = sext i32 %151 to i64
  %153 = getelementptr inbounds [101 x i32], [101 x i32]* %2, i64 0, i64 %152
  %154 = load i32, i32* %153, align 4
  %155 = call i32 (i8*, ...) @printf(i8* getelementptr inbounds ([4 x i8], [4 x i8]* @.str.2, i64 0, i64 0), i32 %154)
  br label %156

156:                                              ; preds = %150
  %157 = load i32, i32* %12, align 4
  %158 = add nsw i32 %157, 1
  store i32 %158, i32* %12, align 4
  br label %145

159:                                              ; preds = %145
  %160 = load i32, i32* %4, align 4
  %161 = sub nsw i32 %160, 1
  %162 = sext i32 %161 to i64
  %163 = getelementptr inbounds [101 x i32], [101 x i32]* %2, i64 0, i64 %162
  %164 = load i32, i32* %163, align 4
  %165 = call i32 (i8*, ...) @printf(i8* getelementptr inbounds ([3 x i8], [3 x i8]* @.str.1, i64 0, i64 0), i32 %164)
  store i32 0, i32* %13, align 4
  br label %166

166:                                              ; preds = %176, %159
  %167 = load i32, i32* %13, align 4
  %168 = load i32, i32* %5, align 4
  %169 = icmp slt i32 %167, %168
  br i1 %169, label %170, label %179

170:                                              ; preds = %166
  %171 = load i32, i32* %13, align 4
  %172 = sext i32 %171 to i64
  %173 = getelementptr inbounds [101 x i32], [101 x i32]* %3, i64 0, i64 %172
  %174 = load i32, i32* %173, align 4
  %175 = call i32 (i8*, ...) @printf(i8* getelementptr inbounds ([4 x i8], [4 x i8]* @.str.3, i64 0, i64 0), i32 %174)
  br label %176

176:                                              ; preds = %170
  %177 = load i32, i32* %13, align 4
  %178 = add nsw i32 %177, 1
  store i32 %178, i32* %13, align 4
  br label %166

179:                                              ; preds = %166
  ret i32 0
}

declare dso_local i32 @__isoc99_scanf(i8*, ...) #1

declare dso_local i32 @printf(i8*, ...) #1


!llvm.module.flags = !{!0}
!llvm.ident = !{!1}

!0 = !{i32 1, !"wchar_size", i32 4}
!1 = !{!"clang version 10.0.0-4ubuntu1 "}
